; Function Attrs: mustprogress nounwind uwtable
define hidden noundef zeroext i1 @_ZN18VM_RedefineClasses19is_modifiable_classEP7oopDesc(ptr noundef nonnull %0) local_unnamed_addr #0 align 2 {
  %2 = load i32, ptr @_ZN15java_lang_Class13_klass_offsetE, align 4
  %3 = tail call noundef ptr @_ZNK7oopDesc14metadata_fieldEi(ptr noundef nonnull align 8 dereferenceable(16) %0, i32 noundef %2) #19
  %4 = icmp eq ptr %3, null
  br i1 %4, label %19, label %5

5:                                                ; preds = %1
  %6 = load i32, ptr @_ZN15java_lang_Class13_klass_offsetE, align 4
  %7 = tail call noundef ptr @_ZNK7oopDesc14metadata_fieldEi(ptr noundef nonnull align 8 dereferenceable(16) %0, i32 noundef %6) #19
  %8 = icmp eq ptr %7, null
  br i1 %8, label %19, label %9

9:                                                ; preds = %5
  %10 = getelementptr inbounds i8, ptr %7, i64 12
  %11 = load i32, ptr %10, align 4
  %12 = icmp slt i32 %11, 5
  br i1 %12, label %13, label %19

13:                                               ; preds = %9
  %14 = getelementptr inbounds i8, ptr %7, i64 164
  %.sroa.0.0.copyload.i.i = load i32, ptr %14, align 4
  %15 = and i32 %.sroa.0.0.copyload.i.i, 67108864
  %.not = icmp eq i32 %15, 0
  br i1 %.not, label %16, label %19

16:                                               ; preds = %13
  %17 = load ptr, ptr getelementptr inbounds (i8, ptr @_ZN9vmClasses8_klassesE, i64 392), align 8
  %18 = icmp ne ptr %7, %17
  br label %19

19:                                               ; preds = %16, %13, %5, %9, %1
  %.0 = phi i1 [ false, %1 ], [ false, %9 ], [ false, %5 ], [ false, %13 ], [ %18, %16 ]
  ret i1 %.0
}